target datalayout = "e-m:e-p270:32:32-p271:32:32-p272:64:64-i64:64-i128:128-f80:128-n8:16:32:64-S128"
target triple = "x86_64-pc-linux-gnu"

%"class.lean::mpz" = type { [1 x %struct.__mpz_struct] }
%struct.__mpz_struct = type { i32, i32, ptr }

@_ZN4lean3mpzC1Ev = unnamed_addr alias void (ptr), ptr @_ZN4lean3mpzC2Ev
@_ZN4lean3mpzD1Ev = unnamed_addr alias void (ptr), ptr @_ZN4lean3mpzD2Ev

; Function Attrs: mustprogress uwtable
define void @_ZNK4lean3mpz3powEj(ptr dead_on_unwind noalias writable sret(%"class.lean::mpz") align 8 %0, ptr noundef nonnull align 8 dereferenceable(16) %1, i32 noundef %2) #2 align 2 personality ptr @__gxx_personality_v0 {
  %4 = alloca ptr, align 8
  %5 = alloca ptr, align 8
  %6 = alloca i32, align 4
  %7 = alloca i1, align 1
  %8 = alloca ptr, align 8
  %9 = alloca i32, align 4
  store ptr %0, ptr %4, align 8
  store ptr %1, ptr %5, align 8, !tbaa !3
  store i32 %2, ptr %6, align 4, !tbaa !11
  %10 = load ptr, ptr %5, align 8
  store i1 false, ptr %7, align 1
  call void @_ZN4lean3mpzC1Ev(ptr noundef nonnull align 8 dereferenceable(16) %0)
  %11 = getelementptr inbounds nuw %"class.lean::mpz", ptr %0, i32 0, i32 0
  %12 = getelementptr inbounds [1 x %struct.__mpz_struct], ptr %11, i64 0, i64 0
  %13 = getelementptr inbounds nuw %"class.lean::mpz", ptr %10, i32 0, i32 0
  %14 = getelementptr inbounds [1 x %struct.__mpz_struct], ptr %13, i64 0, i64 0
  %15 = load i32, ptr %6, align 4, !tbaa !11
  %16 = zext i32 %15 to i64
  invoke void @__gmpz_pow_ui(ptr noundef %12, ptr noundef %14, i64 noundef %16)
          to label %17 unwind label %19

17:                                               ; preds = %3
  store i1 true, ptr %7, align 1
  %18 = load i1, ptr %7, align 1
  br i1 %18, label %24, label %23

19:                                               ; preds = %3
  %20 = landingpad { ptr, i32 }
          cleanup
  %21 = extractvalue { ptr, i32 } %20, 0
  store ptr %21, ptr %8, align 8
  %22 = extractvalue { ptr, i32 } %20, 1
  store i32 %22, ptr %9, align 4
  call void @_ZN4lean3mpzD1Ev(ptr noundef nonnull align 8 dereferenceable(16) %0) #17
  br label %25

23:                                               ; preds = %17
  call void @_ZN4lean3mpzD1Ev(ptr noundef nonnull align 8 dereferenceable(16) %0) #17
  br label %24

24:                                               ; preds = %23, %17
  ret void

25:                                               ; preds = %19
  %26 = load ptr, ptr %8, align 8
  %27 = load i32, ptr %9, align 4
  %28 = insertvalue { ptr, i32 } poison, ptr %26, 0
  %29 = insertvalue { ptr, i32 } %28, i32 %27, 1
  resume { ptr, i32 } %29
}