; Function Attrs: mustprogress uwtable
define void @_ZNK4lean3mpz3powEj(ptr dead_on_unwind noalias writable sret(%"class.lean::mpz") align 8 %0, ptr noundef nonnull align 8 dereferenceable(16) %1, i32 noundef %2) local_unnamed_addr #2 align 2 personality ptr @__gxx_personality_v0 {
  tail call void @_ZN4lean3mpzC1Ev(ptr noundef nonnull align 8 dereferenceable(16) %0)
  %4 = zext i32 %2 to i64
  invoke void @__gmpz_pow_ui(ptr noundef nonnull %0, ptr noundef nonnull %1, i64 noundef %4)
          to label %7 unwind label %5

5:                                                ; preds = %3
  %6 = landingpad { ptr, i32 }
          cleanup
  tail call void @_ZN4lean3mpzD1Ev(ptr noundef nonnull align 8 dereferenceable(16) %0) #18
  resume { ptr, i32 } %6

7:                                                ; preds = %3
  ret void
}